
TV_B_GONE_11_AVR.elf:     file format elf32-avr

Sections:
Idx Name          Size      VMA       LMA       File off  Algn
  0 .text         00001fc4  00000000  00000000  00000074  2**1
                  CONTENTS, ALLOC, LOAD, READONLY, CODE
  1 .data         00000002  00800060  00001fc4  00002038  2**0
                  CONTENTS, ALLOC, LOAD, DATA
  2 .comment      00000030  00000000  00000000  0000203a  2**0
                  CONTENTS, READONLY
  3 .note.gnu.avr.deviceinfo 0000003c  00000000  00000000  0000206c  2**2
                  CONTENTS, READONLY
  4 .debug_aranges 00000058  00000000  00000000  000020a8  2**0
                  CONTENTS, READONLY, DEBUGGING
  5 .debug_info   00000cd2  00000000  00000000  00002100  2**0
                  CONTENTS, READONLY, DEBUGGING
  6 .debug_abbrev 000005d7  00000000  00000000  00002dd2  2**0
                  CONTENTS, READONLY, DEBUGGING
  7 .debug_line   0000040a  00000000  00000000  000033a9  2**0
                  CONTENTS, READONLY, DEBUGGING
  8 .debug_frame  00000090  00000000  00000000  000037b4  2**2
                  CONTENTS, READONLY, DEBUGGING
  9 .debug_str    00000596  00000000  00000000  00003844  2**0
                  CONTENTS, READONLY, DEBUGGING
 10 .debug_loc    0000024d  00000000  00000000  00003dda  2**0
                  CONTENTS, READONLY, DEBUGGING
 11 .debug_ranges 00000030  00000000  00000000  00004027  2**0
                  CONTENTS, READONLY, DEBUGGING

Disassembly of section .text:

00000000 <__vectors>:
       0:	29 cf       	rjmp	.-430    	; 0xfffffe54 <__eeprom_end+0xff7efe54>
       2:	3b cf       	rjmp	.-394    	; 0xfffffe7a <__eeprom_end+0xff7efe7a>
       4:	3a cf       	rjmp	.-396    	; 0xfffffe7a <__eeprom_end+0xff7efe7a>
       6:	39 cf       	rjmp	.-398    	; 0xfffffe7a <__eeprom_end+0xff7efe7a>
       8:	38 cf       	rjmp	.-400    	; 0xfffffe7a <__eeprom_end+0xff7efe7a>
       a:	37 cf       	rjmp	.-402    	; 0xfffffe7a <__eeprom_end+0xff7efe7a>
       c:	36 cf       	rjmp	.-404    	; 0xfffffe7a <__eeprom_end+0xff7efe7a>
       e:	35 cf       	rjmp	.-406    	; 0xfffffe7a <__eeprom_end+0xff7efe7a>
      10:	34 cf       	rjmp	.-408    	; 0xfffffe7a <__eeprom_end+0xff7efe7a>
      12:	33 cf       	rjmp	.-410    	; 0xfffffe7a <__eeprom_end+0xff7efe7a>
      14:	32 cf       	rjmp	.-412    	; 0xfffffe7a <__eeprom_end+0xff7efe7a>
      16:	31 cf       	rjmp	.-414    	; 0xfffffe7a <__eeprom_end+0xff7efe7a>
      18:	30 cf       	rjmp	.-416    	; 0xfffffe7a <__eeprom_end+0xff7efe7a>
      1a:	2f cf       	rjmp	.-418    	; 0xfffffe7a <__eeprom_end+0xff7efe7a>
      1c:	2e cf       	rjmp	.-420    	; 0xfffffe7a <__eeprom_end+0xff7efe7a>

0000001e <__trampolines_end>:
      1e:	eb 1d       	adc	r30, r11
      20:	1a 1d       	adc	r17, r10
      22:	89 1b       	sub	r24, r25
      24:	88 1a       	sub	r8, r24
      26:	ef 19       	sub	r30, r15
      28:	8e 19       	sub	r24, r14
      2a:	7d 18       	sub	r7, r13
      2c:	f4 17       	cp	r31, r20
      2e:	e3 16       	cp	r14, r19
      30:	4a 16       	cp	r4, r26
      32:	79 15       	cp	r23, r9
      34:	e0 14       	cp	r14, r0
      36:	0f 14       	cp	r0, r15
      38:	4e 13       	cpse	r20, r30
      3a:	b5 12       	cpse	r11, r21
      3c:	1c 12       	cpse	r1, r28
      3e:	93 11       	cpse	r25, r3
      40:	fa 10       	cpse	r15, r10
      42:	69 0f       	add	r22, r25
      44:	d8 0d       	add	r29, r8
      46:	3f 0d       	add	r19, r15
      48:	a6 0c       	add	r10, r6
      4a:	0d 0c       	add	r0, r13
      4c:	5c 0b       	sbc	r21, r28
      4e:	f3 0a       	sbc	r15, r19
      50:	22 0a       	sbc	r2, r18
      52:	99 09       	sbc	r25, r9
      54:	c8 08       	sbc	r12, r8
      56:	37 08       	sbc	r3, r7
      58:	de 07       	cpc	r29, r30
      5a:	45 07       	cpc	r20, r21
      5c:	e4 06       	cpc	r14, r20
      5e:	4b 06       	cpc	r4, r27
      60:	ba 04       	cpc	r11, r10
      62:	21 04       	cpc	r2, r1
      64:	88 03       	fmulsu	r16, r16
      66:	2f 03       	fmul	r18, r23
      68:	02 03       	mulsu	r16, r18
      6a:	d5 02       	muls	r29, r21
      6c:	3c 02       	muls	r19, r28
      6e:	2b 02       	muls	r18, r27
      70:	0a 02       	muls	r16, r26
      72:	a1 01       	movw	r20, r2
      74:	08 01       	movw	r0, r16
      76:	a7 00       	.word	0x00a7	; ????
      78:	7a 00       	.word	0x007a	; ????

0000007a <fisherCode>:
      7a:	59 1a 01 6c 03 1a 01 f6 07 1a 01 f6 07 1a 01 6c     Y..l...........l
      8a:	03 1a 01 6c 03 1a 01 f6 07 1a 01 6c 03 1a 01 f6     ...l.......l....
      9a:	07 1a 01 f6 07 1a 01 6c 03 1a 01 00 00              .......l.....

000000a7 <contec3Code>:
      a7:	66 2e 00 7b 00 2e 00 7b 00 2e 00 7b 00 2e 00 7b     f..{...{...{...{
      b7:	00 2e 00 7b 00 88 00 2d 00 2e 00 7b 00 2e 00 7b     ...{...-...{...{
      c7:	00 2e 00 7b 00 2e 00 7b 00 2e 00 7b 00 2e 00 ff     ...{...{...{....
      d7:	0d 2e 00 7b 00 2e 00 7b 00 2e 00 7b 00 2e 00 7b     ...{...{...{...{
      e7:	00 2e 00 7b 00 88 00 2d 00 2e 00 7b 00 2e 00 7b     ...{...-...{...{
      f7:	00 2e 00 7b 00 2e 00 7b 00 2e 00 7b 00 2e 00 00     ...{...{...{....
	...

00000108 <alleronCode>:
     108:	66 9c 03 af 01 38 00 ad 00 38 00 ad 00 38 00 42     f....8...8...8.B
     118:	00 38 00 42 00 38 00 42 00 38 00 42 00 38 00 42     .8.B.8.B.8.B.8.B
     128:	00 38 00 ad 00 38 00 42 00 38 00 ad 00 38 00 42     .8...8.B.8...8.B
     138:	00 38 00 ad 00 38 00 ad 00 38 00 ad 00 38 00 ad     .8...8...8...8..
     148:	00 38 00 42 00 38 00 42 00 38 00 42 00 38 00 42     .8.B.8.B.8.B.8.B
     158:	00 38 00 ad 00 38 00 42 00 38 00 42 00 38 00 42     .8...8.B.8.B.8.B
     168:	00 38 00 42 00 38 00 ad 00 38 00 ad 00 38 00 ad     .8.B.8...8...8..
     178:	00 38 00 42 00 38 00 ad 00 38 00 ad 00 38 00 ad     .8.B.8...8...8..
     188:	00 38 00 ad 00 38 00 70 10 9c 03 e7 00 38 00 c3     .8...8.p.....8..
     198:	22 9c 03 e7 00 38 00 00 00                          "....8...

000001a1 <sony3Code>:
     1a1:	34 fa 00 3f 00 79 00 3f 00 3c 00 3f 00 79 00 3f     4..?.y.?.<.?.y.?
     1b1:	00 3c 00 3f 00 79 00 3f 00 3c 00 3f 00 3c 00 3f     .<.?.y.?.<.?.<.?
     1c1:	00 79 00 3f 00 3c 00 3f 00 3c 00 3f 00 3c 00 3f     .y.?.<.?.<.?.<.?
     1d1:	00 3c 00 03 0b fa 00 3f 00 79 00 3f 00 3c 00 3f     .<.....?.y.?.<.?
     1e1:	00 79 00 3f 00 3c 00 3f 00 79 00 3f 00 3c 00 3f     .y.?.<.?.y.?.<.?
     1f1:	00 3c 00 3f 00 79 00 3f 00 3c 00 3f 00 3c 00 3f     .<.?.y.?.<.?.<.?
     201:	00 3c 00 3f 00 3c 00 00 00                          .<.?.<...

0000020a <contec2Code>:
     20a:	66 76 00 67 00 76 00 67 00 76 00 cd 00 76 00 da     fv.g.v.g.v...v..
     21a:	0a 76 00 67 00 76 00 67 00 76 00 cd 00 76 00 00     .v.g.v.g.v...v..
	...

0000022b <contecCode>:
     22b:	49 76 00 67 00 c4 02 da 0a 76 00 67 00 c4 02 00     Iv.g.....v.g....
	...

0000023c <candleCode>:
     23c:	66 9c 03 cb 01 3b 00 b2 00 3b 00 39 00 3b 00 b2     f....;...;.9.;..
     24c:	00 3b 00 39 00 3b 00 b2 00 3b 00 39 00 3b 00 39     .;.9.;...;.9.;.9
     25c:	00 3b 00 39 00 3b 00 39 00 3b 00 b2 00 3b 00 39     .;.9.;.9.;...;.9
     26c:	00 3b 00 b2 00 3b 00 39 00 3b 00 b2 00 3b 00 b2     .;...;.9.;...;..
     27c:	00 3b 00 b2 00 3b 00 39 00 3b 00 b2 00 3b 00 39     .;...;.9.;...;.9
     28c:	00 3b 00 39 00 3b 00 b2 00 3b 00 39 00 3b 00 39     .;.9.;...;.9.;.9
     29c:	00 3b 00 39 00 3b 00 b2 00 3b 00 39 00 3b 00 b2     .;.9.;...;.9.;..
     2ac:	00 3b 00 b2 00 3b 00 39 00 3b 00 b2 00 3b 00 b2     .;...;.9.;...;..
     2bc:	00 3b 00 b2 00 3b 00 a6 10 9c 03 e7 00 3b 00 1e     .;...;.......;..
     2cc:	26 9c 03 e7 00 3b 00 00 00                          &....;...

000002d5 <aoc2Code>:
     2d5:	62 12 02 a7 00 2a 00 0d 01 2a 00 0d 01 2a 00 0d     b....*...*...*..
     2e5:	01 aa 00 a6 00 2a 00 0d 01 aa 00 a6 00 aa 00 a6     .....*..........
     2f5:	00 2a 00 0d 01 2a 00 0d 01 2a 00 00 00              .*...*...*...

00000302 <anamCode>:
     302:	6e 58 00 53 02 58 00 ff 00 58 00 ff 00 58 00 ff     nX.S.X...X...X..
     312:	00 58 00 52 02 58 00 ff 00 58 00 52 02 58 00 52     .X.R.X...X.R.X.R
     322:	02 58 00 52 02 58 00 ff 00 58 00 00 00              .X.R.X...X...

0000032f <hitachi4Code>:
     32f:	62 65 00 5e 00 65 00 5e 00 65 00 5e 00 65 00 25     be.^.e.^.e.^.e.%
     33f:	01 65 00 5e 00 65 00 25 01 65 00 5e 00 65 00 25     .e.^.e.%.e.^.e.%
     34f:	01 65 00 5e 00 65 00 5e 00 65 00 c2 0d 65 00 5e     .e.^.e.^.e...e.^
     35f:	00 65 00 5e 00 65 00 5e 00 65 00 25 01 65 00 5e     .e.^.e.^.e.%.e.^
     36f:	00 65 00 25 01 65 00 5e 00 65 00 25 01 65 00 5e     .e.%.e.^.e.%.e.^
     37f:	00 65 00 5e 00 65 00 00 00                          .e.^.e...

00000388 <NEC2Code>:
     388:	6a 9c 03 d0 01 3a 00 39 00 3a 00 39 00 3a 00 39     j....:.9.:.9.:.9
     398:	00 3a 00 ad 00 3a 00 ad 00 3a 00 39 00 3a 00 39     .:...:...:.9.:.9
     3a8:	00 3a 00 39 00 3a 00 ad 00 3a 00 ad 00 3a 00 ad     .:.9.:...:...:..
     3b8:	00 3a 00 39 00 3a 00 39 00 3a 00 ad 00 3a 00 ad     .:.9.:.9.:...:..
     3c8:	00 3a 00 ad 00 3a 00 39 00 3a 00 39 00 3a 00 39     .:...:.9.:.9.:.9
     3d8:	00 3a 00 ad 00 3a 00 39 00 3a 00 39 00 3a 00 39     .:...:.9.:.9.:.9
     3e8:	00 3a 00 39 00 3a 00 ad 00 3a 00 ad 00 3a 00 ad     .:.9.:...:...:..
     3f8:	00 3a 00 39 00 3a 00 ad 00 3a 00 ad 00 3a 00 ad     .:.9.:...:...:..
     408:	00 3a 00 ad 00 3a 00 d6 0f 9e 03 e6 00 3a 00 98     .:...:.......:..
     418:	26 9e 03 e6 00 3a 00 00 00                          &....:...

00000421 <hitachi3Code>:
     421:	6a 9c 03 d0 01 3a 00 39 00 3a 00 39 00 3a 00 39     j....:.9.:.9.:.9
     431:	00 3a 00 39 00 3a 00 ad 00 3a 00 39 00 3a 00 ad     .:.9.:...:.9.:..
     441:	00 3a 00 39 00 3a 00 ad 00 3a 00 ad 00 3a 00 ad     .:.9.:...:...:..
     451:	00 3a 00 ad 00 3a 00 39 00 3a 00 ad 00 3a 00 39     .:...:.9.:...:.9
     461:	00 3a 00 ad 00 3a 00 ad 00 3a 00 ad 00 3a 00 ad     .:...:...:...:..
     471:	00 3a 00 ad 00 3a 00 ad 00 3a 00 ad 00 3a 00 39     .:...:...:...:.9
     481:	00 3a 00 39 00 3a 00 39 00 3a 00 39 00 3a 00 39     .:.9.:.9.:.9.:.9
     491:	00 3a 00 39 00 3a 00 39 00 3a 00 39 00 3a 00 ad     .:.9.:.9.:.9.:..
     4a1:	00 3a 00 ad 00 3a 00 d6 0f 9d 03 e6 00 3a 00 98     .:...:.......:..
     4b1:	26 9d 03 e6 00 3a 00 00 00                          &....:...

000004ba <fujitsu2Code>:
     4ba:	6a 58 01 9f 00 2b 00 2b 00 2b 00 2b 00 2b 00 7c     jX...+.+.+.+.+.|
     4ca:	00 2b 00 2b 00 2b 00 7c 00 2b 00 2b 00 2b 00 2b     .+.+.+.|.+.+.+.+
     4da:	00 2b 00 2b 00 2b 00 7c 00 2b 00 7c 00 2b 00 2b     .+.+.+.|.+.|.+.+
     4ea:	00 2b 00 2b 00 2b 00 2b 00 2b 00 7c 00 2b 00 7c     .+.+.+.+.+.|.+.|
     4fa:	00 2b 00 2b 00 2b 00 2b 00 2b 00 2b 00 2b 00 2b     .+.+.+.+.+.+.+.+
     50a:	00 2b 00 2b 00 2b 00 2b 00 2b 00 2b 00 2b 00 2b     .+.+.+.+.+.+.+.+
     51a:	00 2b 00 2b 00 2b 00 2b 00 2b 00 2b 00 2b 00 7c     .+.+.+.+.+.+.+.|
     52a:	00 2b 00 2b 00 2b 00 2b 00 2b 00 2b 00 2b 00 2b     .+.+.+.+.+.+.+.+
     53a:	00 2b 00 7c 00 2b 00 2b 00 2b 00 7c 00 2b 00 2b     .+.|.+.+.+.|.+.+
     54a:	00 2b 00 7c 00 2b 00 2b 00 2b 00 2b 00 2b 00 2b     .+.|.+.+.+.+.+.+
     55a:	00 2b 00 7c 00 2b 00 2b 00 2b 00 2b 00 2b 00 2b     .+.|.+.+.+.+.+.+
     56a:	00 2b 00 2b 00 2b 00 2b 00 2b 00 2b 00 2b 00 2b     .+.+.+.+.+.+.+.+
     57a:	00 2b 00 2b 00 2b 00 3e 15 5b 01 9d 00 2b 00 2b     .+.+.+.>.[...+.+
     58a:	00 2b 00 2b 00 2b 00 7c 00 2b 00 2b 00 2b 00 7c     .+.+.+.|.+.+.+.|
     59a:	00 2b 00 2b 00 2b 00 2b 00 2b 00 2b 00 2b 00 7c     .+.+.+.+.+.+.+.|
     5aa:	00 2b 00 7c 00 2b 00 2b 00 2b 00 2b 00 2b 00 2b     .+.|.+.+.+.+.+.+
     5ba:	00 2b 00 7c 00 2b 00 7c 00 2b 00 2b 00 2b 00 2b     .+.|.+.|.+.+.+.+
     5ca:	00 2b 00 2b 00 2b 00 2b 00 2b 00 2b 00 2b 00 2b     .+.+.+.+.+.+.+.+
     5da:	00 2b 00 2b 00 2b 00 2b 00 2b 00 2b 00 2b 00 2b     .+.+.+.+.+.+.+.+
     5ea:	00 2b 00 2b 00 2b 00 7c 00 2b 00 2b 00 2b 00 2b     .+.+.+.|.+.+.+.+
     5fa:	00 2b 00 2b 00 2b 00 2b 00 2b 00 7c 00 2b 00 2b     .+.+.+.+.+.|.+.+
     60a:	00 2b 00 7c 00 2b 00 2b 00 2b 00 7c 00 2b 00 2b     .+.|.+.+.+.|.+.+
     61a:	00 2b 00 2b 00 2b 00 2b 00 2b 00 7c 00 2b 00 2b     .+.+.+.+.+.|.+.+
     62a:	00 2b 00 2b 00 2b 00 2b 00 2b 00 2b 00 2b 00 2b     .+.+.+.+.+.+.+.+
     63a:	00 2b 00 2b 00 2b 00 2b 00 2b 00 2b 00 2b 00 00     .+.+.+.+.+.+.+..
	...

0000064b <hitachi2Code>:
     64b:	6a 9c 03 cd 01 38 00 38 00 38 00 38 00 38 00 38     j....8.8.8.8.8.8
     65b:	00 38 00 38 00 38 00 ae 00 38 00 38 00 38 00 ae     .8.8.8...8.8.8..
     66b:	00 38 00 38 00 38 00 ae 00 38 00 38 00 38 00 ae     .8.8.8...8.8.8..
     67b:	00 38 00 ae 00 38 00 38 00 38 00 ae 00 38 00 38     .8...8.8.8...8.8
     68b:	00 38 00 ae 00 38 00 38 00 38 00 ae 00 38 00 38     .8...8.8.8...8.8
     69b:	00 38 00 38 00 38 00 38 00 38 00 38 00 38 00 38     .8.8.8.8.8.8.8.8
     6ab:	00 38 00 38 00 38 00 ae 00 38 00 38 00 38 00 ae     .8.8.8...8.8.8..
     6bb:	00 38 00 ae 00 38 00 ae 00 38 00 ae 00 38 00 ae     .8...8...8...8..
     6cb:	00 38 00 ae 00 38 00 d7 0f 9e 03 e6 00 38 00 7f     .8...8.......8..
     6db:	26 9e 03 e6 00 38 00 00 00                          &....8...

000006e4 <crownCode>:
     6e4:	72 5c 00 5b 00 5c 00 5b 00 b8 00 5b 00 5c 00 5b     r\.[.\.[...[.\.[
     6f4:	00 5c 00 5b 00 5c 00 5b 00 5c 00 5b 00 5c 00 5b     .\.[.\.[.\.[.\.[
     704:	00 5c 00 b6 00 5c 00 5b 00 b8 00 5b 00 5c 00 01     .\...\.[...[.\..
     714:	24 5c 00 5b 00 5c 00 5b 00 b8 00 5b 00 5c 00 5b     $\.[.\.[...[.\.[
     724:	00 5c 00 5b 00 5c 00 5b 00 5c 00 5b 00 5c 00 5b     .\.[.\.[.\.[.\.[
     734:	00 5c 00 b6 00 5c 00 5b 00 b8 00 5b 00 5c 00 00     .\...\.[...[.\..
	...

00000745 <viewsonic3Code>:
     745:	6a 9c 03 cd 01 38 00 38 00 38 00 38 00 38 00 38     j....8.8.8.8.8.8
     755:	00 38 00 38 00 38 00 ae 00 38 00 38 00 38 00 ae     .8.8.8...8.8.8..
     765:	00 38 00 38 00 38 00 ae 00 38 00 38 00 38 00 ae     .8.8.8...8.8.8..
     775:	00 38 00 ae 00 38 00 38 00 38 00 ae 00 38 00 38     .8...8.8.8...8.8
     785:	00 38 00 ae 00 38 00 38 00 38 00 38 00 38 00 38     .8...8.8.8.8.8.8
     795:	00 38 00 38 00 38 00 38 00 38 00 38 00 38 00 38     .8.8.8.8.8.8.8.8
     7a5:	00 38 00 38 00 38 00 ae 00 38 00 ae 00 38 00 ae     .8.8.8...8...8..
     7b5:	00 38 00 ae 00 38 00 ae 00 38 00 ae 00 38 00 ae     .8...8...8...8..
     7c5:	00 38 00 ae 00 38 00 d7 0f 9e 03 e6 00 38 00 7f     .8...8.......8..
     7d5:	26 9e 03 e6 00 38 00 00 00                          &....8...

000007de <magnavoxCode>:
     7de:	72 5c 00 5c 00 b8 00 5c 00 5c 00 5c 00 5c 00 5c     r\.\...\.\.\.\.\
     7ee:	00 5c 00 5c 00 5c 00 5c 00 5c 00 b8 00 b8 00 5c     .\.\.\.\.\.....\
     7fe:	00 5c 00 b8 00 5c 00 5c 00 b8 00 00 24 5c 00 5c     .\...\.\....$\.\
     80e:	00 b8 00 5c 00 5c 00 5c 00 5c 00 5c 00 5c 00 5c     ...\.\.\.\.\.\.\
     81e:	00 5c 00 5c 00 5c 00 b8 00 b8 00 5c 00 5c 00 b8     .\.\.\.....\.\..
     82e:	00 5c 00 5c 00 b8 00 00 00                          .\.\.....

00000837 <brillianCode>:
     837:	6a 0b 01 14 01 7b 00 7b 00 7b 00 15 01 7b 00 7b     j....{.{.{...{.{
     847:	00 7b 00 15 01 7b 00 7b 00 7b 00 15 01 7b 00 15     .{...{.{.{...{..
     857:	01 7b 00 7b 00 7b 00 15 01 7b 00 15 01 7b 00 7b     .{.{.{...{...{.{
     867:	00 7b 00 7b 00 7b 00 7b 00 7b 00 15 01 7b 00 7b     .{.{.{.{.{...{.{
     877:	00 7b 00 15 01 7b 00 0c 13 0b 01 15 01 7b 00 7b     .{...{.......{.{
     887:	00 7b 00 15 01 7b 00 7b 00 7b 00 15 01 7b 00 7b     .{...{.{.{...{.{
     897:	00 7b 00 15 01 7b 00 15 01 7b 00 7b 00 7b 00 15     .{...{...{.{.{..
     8a7:	01 7b 00 15 01 7b 00 7b 00 7b 00 7b 00 7b 00 7b     .{...{.{.{.{.{.{
     8b7:	00 7b 00 15 01 7b 00 7b 00 7b 00 15 01 7b 00 00     .{...{.{.{...{..
	...

000008c8 <thompsonCode>:
     8c8:	47 9b 01 9a 01 34 00 66 00 34 00 cd 00 34 00 cd     G....4.f.4...4..
     8d8:	00 34 00 cd 00 34 00 66 00 34 00 66 00 34 00 cd     .4...4.f.4.f.4..
     8e8:	00 34 00 66 00 34 00 cd 00 34 00 66 00 34 00 cd     .4.f.4...4.f.4..
     8f8:	00 34 00 66 00 34 00 cd 00 34 00 66 00 34 00 66     .4.f.4...4.f.4.f
     908:	00 34 00 66 00 34 00 cd 00 34 00 cd 00 34 00 66     .4.f.4...4...4.f
     918:	00 34 00 cd 00 34 00 66 00 34 00 cd 00 34 00 66     .4...4.f.4...4.f
     928:	00 34 00 cd 00 34 00 35 03 9b 01 9a 01 34 00 66     .4...4.5.....4.f
     938:	00 34 00 cd 00 34 00 cd 00 34 00 cd 00 34 00 66     .4...4...4...4.f
     948:	00 34 00 66 00 34 00 cd 00 34 00 66 00 34 00 cd     .4.f.4...4.f.4..
     958:	00 34 00 66 00 34 00 cd 00 34 00 66 00 34 00 cd     .4.f.4...4.f.4..
     968:	00 34 00 66 00 34 00 66 00 34 00 66 00 34 00 cd     .4.f.4.f.4.f.4..
     978:	00 34 00 cd 00 34 00 66 00 34 00 cd 00 34 00 66     .4...4.f.4...4.f
     988:	00 34 00 cd 00 34 00 66 00 34 00 cd 00 33 00 00     .4...4.f.4...3..
	...

00000999 <zenith2Code>:
     999:	68 34 00 31 00 34 00 a3 01 34 00 0a 02 34 00 31     h4.1.4...4...4.1
     9a9:	00 34 00 a3 01 34 00 31 00 34 00 a3 01 34 00 0a     .4...4.1.4...4..
     9b9:	02 34 00 0a 02 34 00 31 00 34 00 a3 01 34 00 0a     .4...4.1.4...4..
     9c9:	02 34 00 31 00 34 00 a3 01 34 00 0a 02 34 00 31     .4.1.4...4...4.1
     9d9:	00 34 00 7a 32 34 00 31 00 34 00 a3 01 34 00 0a     .4.z24.1.4...4..
     9e9:	02 34 00 31 00 34 00 a3 01 34 00 31 00 34 00 a3     .4.1.4...4.1.4..
     9f9:	01 34 00 0a 02 34 00 0a 02 34 00 31 00 34 00 a3     .4...4...4.1.4..
     a09:	01 34 00 0a 02 34 00 31 00 34 00 a3 01 34 00 0a     .4...4.1.4...4..
     a19:	02 34 00 31 00 34 00 00 00                          .4.1.4...

00000a22 <viewsonic2Code>:
     a22:	6a 65 01 66 01 58 00 0e 01 58 00 0e 01 58 00 0e     je.f.X...X...X..
     a32:	01 58 00 0e 01 58 00 0e 01 58 00 0e 01 58 00 0e     .X...X...X...X..
     a42:	01 58 00 5b 00 58 00 5b 00 58 00 5b 00 58 00 5b     .X.[.X.[.X.[.X.[
     a52:	00 58 00 5b 00 58 00 5b 00 58 00 5b 00 58 00 5b     .X.[.X.[.X.[.X.[
     a62:	00 58 00 5b 00 58 00 5b 00 58 00 5b 00 58 00 5b     .X.[.X.[.X.[.X.[
     a72:	00 58 00 0e 01 58 00 0e 01 58 00 0e 01 58 00 0e     .X...X...X...X..
     a82:	01 58 00 0e 01 58 00 ea 0d 66 01 66 01 58 00 0e     .X...X...f.f.X..
     a92:	01 58 00 0e 01 58 00 0e 01 58 00 0e 01 58 00 0e     .X...X...X...X..
     aa2:	01 58 00 0e 01 58 00 0e 01 58 00 5b 00 58 00 5b     .X...X...X.[.X.[
     ab2:	00 58 00 5b 00 58 00 5b 00 58 00 5b 00 58 00 5b     .X.[.X.[.X.[.X.[
     ac2:	00 58 00 5b 00 58 00 5b 00 58 00 5b 00 58 00 5b     .X.[.X.[.X.[.X.[
     ad2:	00 58 00 5b 00 58 00 5b 00 58 00 0e 01 58 00 0e     .X.[.X.[.X...X..
     ae2:	01 58 00 0e 01 58 00 0e 01 58 00 0e 01 58 00 00     .X...X...X...X..
	...

00000af3 <sony2Code>:
     af3:	6a f5 00 3c 00 7b 00 3c 00 7b 00 3c 00 7b 00 3c     j..<.{.<.{.<.{.<
     b03:	00 7b 00 3c 00 3d 00 3c 00 7b 00 3c 00 3d 00 3c     .{.<.=.<.{.<.=.<
     b13:	00 7b 00 3c 00 3d 00 3c 00 3d 00 3c 00 3d 00 3c     .{.<.=.<.=.<.=.<
     b23:	00 3d 00 4c 0a f6 00 3c 00 7b 00 3c 00 7b 00 3c     .=.L...<.{.<.{.<
     b33:	00 7b 00 3c 00 7b 00 3c 00 3d 00 3c 00 7b 00 3c     .{.<.{.<.=.<.{.<
     b43:	00 3d 00 3c 00 7b 00 3c 00 3d 00 3c 00 3d 00 3c     .=.<.{.<.=.<.=.<
     b53:	00 3d 00 3c 00 3d 00 00 00                          .=.<.=...

00000b5c <admiralCode>:
     b5c:	66 33 00 04 02 33 00 04 02 33 00 34 00 33 00 a2     f3...3...3.4.3..
     b6c:	01 33 00 34 00 33 00 a2 01 33 00 04 02 33 00 34     .3.4.3...3...3.4
     b7c:	00 33 00 a2 01 33 00 04 02 33 00 34 00 33 00 a2     .3...3...3.4.3..
     b8c:	01 33 00 04 02 33 00 04 02 33 00 34 00 33 00 a2     .3...3...3.4.3..
     b9c:	01 33 00 34 00 33 00 a2 01 33 00 04 02 33 00 34     .3.4.3...3...3.4
     bac:	00 33 00 a2 01 33 00 fa 29 33 00 04 02 33 00 04     .3...3..)3...3..
     bbc:	02 33 00 34 00 33 00 a2 01 33 00 34 00 33 00 a2     .3.4.3...3.4.3..
     bcc:	01 33 00 04 02 33 00 34 00 33 00 a2 01 33 00 04     .3...3.4.3...3..
     bdc:	02 33 00 34 00 33 00 a2 01 33 00 04 02 33 00 04     .3.4.3...3...3..
     bec:	02 33 00 34 00 33 00 a2 01 33 00 34 00 33 00 a2     .3.4.3...3.4.3..
     bfc:	01 33 00 04 02 33 00 34 00 33 00 a2 01 33 00 00     .3...3.4.3...3..
	...

00000c0d <NECCode>:
     c0d:	6a 96 03 cc 01 38 00 3d 00 38 00 3d 00 38 00 3d     j....8.=.8.=.8.=
     c1d:	00 38 00 b3 00 38 00 b3 00 38 00 3d 00 38 00 3d     .8...8...8.=.8.=
     c2d:	00 38 00 3d 00 38 00 3d 00 38 00 3d 00 38 00 3d     .8.=.8.=.8.=.8.=
     c3d:	00 38 00 b3 00 38 00 b3 00 38 00 3d 00 38 00 3d     .8...8...8.=.8.=
     c4d:	00 38 00 3d 00 38 00 3d 00 38 00 3d 00 38 00 3d     .8.=.8.=.8.=.8.=
     c5d:	00 38 00 3d 00 38 00 3d 00 38 00 3d 00 38 00 b3     .8.=.8.=.8.=.8..
     c6d:	00 38 00 b3 00 38 00 b3 00 38 00 b3 00 38 00 b3     .8...8...8...8..
     c7d:	00 38 00 b3 00 38 00 b3 00 38 00 b3 00 38 00 3d     .8...8...8...8.=
     c8d:	00 38 00 3d 00 38 00 e5 11 99 03 e6 00 38 00 e9     .8.=.8.......8..
     c9d:	25 99 03 e6 00 38 00 00 00                          %....8...

00000ca6 <daewooCode>:
     ca6:	6a 35 03 99 01 33 00 34 00 33 00 34 00 33 00 a3     j5...3.4.3.4.3..
     cb6:	00 33 00 34 00 33 00 a3 00 33 00 34 00 33 00 34     .3.4.3...3.4.3.4
     cc6:	00 33 00 34 00 33 00 99 01 33 00 a3 00 33 00 34     .3.4.3...3...3.4
     cd6:	00 33 00 a3 00 33 00 34 00 33 00 a3 00 33 00 34     .3...3.4.3...3.4
     ce6:	00 33 00 34 00 33 00 34 00 33 00 5d 09 36 03 99     .3.4.3.4.3.].6..
     cf6:	01 33 00 34 00 33 00 34 00 33 00 a3 00 33 00 34     .3.4.3.4.3...3.4
     d06:	00 33 00 a3 00 33 00 34 00 33 00 34 00 33 00 34     .3...3.4.3.4.3.4
     d16:	00 33 00 99 01 33 00 a3 00 33 00 34 00 33 00 a3     .3...3...3.4.3..
     d26:	00 33 00 34 00 33 00 a3 00 33 00 34 00 33 00 34     .3.4.3...3.4.3.4
     d36:	00 33 00 34 00 33 00 00 00                          .3.4.3...

00000d3f <goldstarCode>:
     d3f:	6a 9c 03 d8 01 3f 00 37 00 3f 00 37 00 3f 00 a6     j....?.7.?.7.?..
     d4f:	00 3f 00 37 00 3f 00 37 00 3f 00 37 00 3f 00 37     .?.7.?.7.?.7.?.7
     d5f:	00 3f 00 37 00 3f 00 a6 00 3f 00 a6 00 3f 00 37     .?.7.?...?...?.7
     d6f:	00 3f 00 a6 00 3f 00 a6 00 3f 00 a6 00 3f 00 a6     .?...?...?...?..
     d7f:	00 3f 00 a6 00 3f 00 37 00 3f 00 37 00 3f 00 37     .?...?.7.?.7.?.7
     d8f:	00 3f 00 a6 00 3f 00 37 00 3f 00 37 00 3f 00 37     .?...?.7.?.7.?.7
     d9f:	00 3f 00 37 00 3f 00 a6 00 3f 00 a6 00 3f 00 a6     .?.7.?...?...?..
     daf:	00 3f 00 37 00 3f 00 a6 00 3f 00 a6 00 3f 00 a6     .?.7.?...?...?..
     dbf:	00 3f 00 a6 00 3f 00 6f 10 9e 03 ea 00 3f 00 e5     .?...?.o.....?..
     dcf:	26 9e 03 ea 00 3e 00 00 00                          &....>...

00000dd8 <fujitsuCode>:
     dd8:	6a 4f 01 a6 00 2b 00 2a 00 2b 00 2a 00 2b 00 7e     jO...+.*.+.*.+.~
     de8:	00 2b 00 2a 00 2b 00 7e 00 2b 00 2a 00 2b 00 2a     .+.*.+.~.+.*.+.*
     df8:	00 2b 00 2a 00 2b 00 7e 00 2b 00 7e 00 2b 00 2a     .+.*.+.~.+.~.+.*
     e08:	00 2b 00 2a 00 2b 00 2a 00 2b 00 7e 00 2b 00 7e     .+.*.+.*.+.~.+.~
     e18:	00 2b 00 2a 00 2b 00 2a 00 2b 00 2a 00 2b 00 2a     .+.*.+.*.+.*.+.*
     e28:	00 2b 00 2a 00 2b 00 2a 00 2b 00 2a 00 2b 00 2a     .+.*.+.*.+.*.+.*
     e38:	00 2b 00 2a 00 2b 00 2a 00 2b 00 2a 00 2b 00 7e     .+.*.+.*.+.*.+.~
     e48:	00 2b 00 2a 00 2b 00 2a 00 2b 00 2a 00 2b 00 2a     .+.*.+.*.+.*.+.*
     e58:	00 2b 00 7e 00 2b 00 2a 00 2b 00 2a 00 2b 00 7e     .+.~.+.*.+.*.+.~
     e68:	00 2b 00 2a 00 2b 00 2a 00 2b 00 2a 00 2b 00 2a     .+.*.+.*.+.*.+.*
     e78:	00 2b 00 7e 00 2b 00 2a 00 2b 00 7e 00 2b 00 2a     .+.~.+.*.+.~.+.*
     e88:	00 2b 00 2a 00 2b 00 2a 00 2b 00 2a 00 2b 00 2a     .+.*.+.*.+.*.+.*
     e98:	00 2b 00 2a 00 2b 00 73 12 50 01 a6 00 2b 00 2a     .+.*.+.s.P...+.*
     ea8:	00 2b 00 2a 00 2b 00 7e 00 2b 00 2a 00 2b 00 7e     .+.*.+.~.+.*.+.~
     eb8:	00 2b 00 2a 00 2b 00 2a 00 2b 00 2a 00 2b 00 7e     .+.*.+.*.+.*.+.~
     ec8:	00 2b 00 7e 00 2b 00 2a 00 2b 00 2a 00 2b 00 2a     .+.~.+.*.+.*.+.*
     ed8:	00 2b 00 7e 00 2b 00 7e 00 2b 00 2a 00 2b 00 2a     .+.~.+.~.+.*.+.*
     ee8:	00 2b 00 2a 00 2b 00 2a 00 2b 00 2a 00 2b 00 2a     .+.*.+.*.+.*.+.*
     ef8:	00 2b 00 2a 00 2b 00 2a 00 2b 00 2a 00 2b 00 2a     .+.*.+.*.+.*.+.*
     f08:	00 2b 00 2a 00 2b 00 7e 00 2b 00 2a 00 2b 00 2a     .+.*.+.~.+.*.+.*
     f18:	00 2b 00 2a 00 2b 00 2a 00 2b 00 7e 00 2b 00 2a     .+.*.+.*.+.~.+.*
     f28:	00 2b 00 2a 00 2b 00 7e 00 2b 00 2a 00 2b 00 2a     .+.*.+.~.+.*.+.*
     f38:	00 2b 00 2a 00 2b 00 2a 00 2b 00 7e 00 2b 00 2a     .+.*.+.*.+.~.+.*
     f48:	00 2b 00 7e 00 2b 00 2a 00 2b 00 2a 00 2b 00 2a     .+.~.+.*.+.*.+.*
     f58:	00 2b 00 2a 00 2b 00 2a 00 2b 00 2a 00 2b 00 00     .+.*.+.*.+.*.+..
	...

00000f69 <pioneer2Code>:
     f69:	6a 69 03 b7 01 35 00 37 00 35 00 a4 00 35 00 37     ji...5.7.5...5.7
     f79:	00 35 00 a4 00 35 00 37 00 35 00 a4 00 35 00 37     .5...5.7.5...5.7
     f89:	00 35 00 a4 00 35 00 a4 00 35 00 37 00 35 00 a4     .5...5...5.7.5..
     f99:	00 35 00 37 00 35 00 a4 00 35 00 37 00 35 00 a4     .5.7.5...5.7.5..
     fa9:	00 35 00 37 00 35 00 37 00 35 00 37 00 35 00 a4     .5.7.5.7.5.7.5..
     fb9:	00 35 00 a4 00 35 00 a4 00 35 00 37 00 35 00 37     .5...5...5.7.5.7
     fc9:	00 35 00 37 00 35 00 a4 00 35 00 a4 00 35 00 37     .5.7.5...5...5.7
     fd9:	00 35 00 37 00 35 00 37 00 35 00 a4 00 35 00 a4     .5.7.5.7.5...5..
     fe9:	00 35 00 a4 00 35 00 49 0a 69 03 b8 01 35 00 37     .5...5.I.i...5.7
     ff9:	00 35 00 a4 00 35 00 37 00 35 00 a4 00 35 00 37     .5...5.7.5...5.7
    1009:	00 35 00 a4 00 35 00 37 00 35 00 a4 00 35 00 a4     .5...5.7.5...5..
    1019:	00 35 00 37 00 35 00 a4 00 35 00 37 00 35 00 a4     .5.7.5...5.7.5..
    1029:	00 35 00 37 00 35 00 a4 00 35 00 37 00 35 00 37     .5.7.5...5.7.5.7
    1039:	00 35 00 37 00 35 00 a4 00 35 00 a4 00 35 00 a4     .5.7.5...5...5..
    1049:	00 35 00 37 00 35 00 37 00 35 00 37 00 35 00 a4     .5.7.5.7.5.7.5..
    1059:	00 35 00 a4 00 35 00 37 00 35 00 37 00 35 00 37     .5...5.7.5.7.5.7
    1069:	00 35 00 a4 00 35 00 a4 00 35 00 a4 00 35 00 49     .5...5...5...5.I
    1079:	0a 69 03 b8 01 35 00 37 00 35 00 a4 00 35 00 37     .i...5.7.5...5.7
    1089:	00 35 00 a4 00 35 00 37 00 35 00 a4 00 35 00 37     .5...5.7.5...5.7
    1099:	00 35 00 a4 00 35 00 a4 00 35 00 37 00 35 00 a4     .5...5...5.7.5..
    10a9:	00 35 00 37 00 35 00 a4 00 35 00 37 00 35 00 a4     .5.7.5...5.7.5..
    10b9:	00 35 00 37 00 35 00 37 00 35 00 37 00 35 00 a4     .5.7.5.7.5.7.5..
    10c9:	00 35 00 a4 00 35 00 a4 00 35 00 37 00 35 00 37     .5...5...5.7.5.7
    10d9:	00 35 00 37 00 35 00 a4 00 35 00 a4 00 35 00 37     .5.7.5...5...5.7
    10e9:	00 35 00 37 00 35 00 37 00 35 00 a4 00 35 00 00     .5.7.5.7.5...5..
	...

000010fa <bellCode>:
    10fa:	66 9c 03 cb 01 3b 00 39 00 3b 00 39 00 3b 00 39     f....;.9.;.9.;.9
    110a:	00 3b 00 b2 00 3b 00 b2 00 3b 00 b2 00 3b 00 39     .;...;...;...;.9
    111a:	00 3b 00 39 00 3b 00 b2 00 3b 00 b2 00 3b 00 b2     .;.9.;...;...;..
    112a:	00 3b 00 39 00 3b 00 39 00 3b 00 39 00 3b 00 b2     .;.9.;.9.;.9.;..
    113a:	00 3b 00 b2 00 3b 00 39 00 3b 00 b2 00 3b 00 39     .;...;.9.;...;.9
    114a:	00 3b 00 39 00 3b 00 b2 00 3b 00 39 00 3b 00 39     .;.9.;...;.9.;.9
    115a:	00 3b 00 39 00 3b 00 b2 00 3b 00 39 00 3b 00 b2     .;.9.;...;.9.;..
    116a:	00 3b 00 b2 00 3b 00 39 00 3b 00 b2 00 3b 00 b2     .;...;.9.;...;..
    117a:	00 3b 00 b2 00 3b 00 a4 10 9c 03 e7 00 3b 00 19     .;...;.......;..
    118a:	26 9c 03 e7 00 3b 00 00 00                          &....;...

00001193 <aocCode>:
    1193:	76 1e 00 d7 00 1e 00 d8 00 1e 00 d8 00 1e 00 5b     v..............[
    11a3:	00 1e 00 5b 00 1e 00 5b 00 1e 00 d8 00 1e 00 5b     ...[...[.......[
    11b3:	00 1e 00 5b 00 1e 00 d8 00 1e 00 5b 00 1e 00 5b     ...[.......[...[
    11c3:	00 1e 00 5b 00 1e 00 5b 00 1e 00 5b 00 1e 00 5b     ...[...[...[...[
    11d3:	00 1e 00 0d 0a 1e 00 d8 00 1e 00 d8 00 1e 00 d8     ................
    11e3:	00 1e 00 5b 00 1e 00 5b 00 1e 00 5b 00 1e 00 d8     ...[...[...[....
    11f3:	00 1e 00 5b 00 1e 00 5b 00 1e 00 d8 00 1e 00 5b     ...[...[.......[
    1203:	00 1e 00 5b 00 1e 00 5b 00 1e 00 5b 00 1e 00 5b     ...[...[...[...[
    1213:	00 1e 00 5b 00 1e 00 00 00                          ...[.....

0000121c <bushCode>:
    121c:	6a 9c 03 d0 01 3a 00 39 00 3a 00 ad 00 3a 00 39     j....:.9.:...:.9
    122c:	00 3a 00 39 00 3a 00 39 00 3a 00 39 00 3a 00 ad     .:.9.:.9.:.9.:..
    123c:	00 3a 00 39 00 3a 00 ad 00 3a 00 39 00 3a 00 ad     .:.9.:...:.9.:..
    124c:	00 3a 00 ad 00 3a 00 ad 00 3a 00 ad 00 3a 00 39     .:...:...:...:.9
    125c:	00 3a 00 ad 00 3a 00 ad 00 3a 00 39 00 3a 00 39     .:...:...:.9.:.9
    126c:	00 3a 00 39 00 3a 00 39 00 3a 00 39 00 3a 00 39     .:.9.:.9.:.9.:.9
    127c:	00 3a 00 39 00 3a 00 39 00 3a 00 ad 00 3a 00 ad     .:.9.:.9.:...:..
    128c:	00 3a 00 ad 00 3a 00 ad 00 3a 00 ad 00 3a 00 ad     .:...:...:...:..
    129c:	00 3a 00 ad 00 3a 00 d6 0f 9e 03 e6 00 3a 00 98     .:...:.......:..
    12ac:	26 9e 03 e6 00 3a 00 00 00                          &....:...

000012b5 <viewsonicCode>:
    12b5:	6a 9c 03 d0 01 3a 00 39 00 3a 00 39 00 3a 00 39     j....:.9.:.9.:.9
    12c5:	00 3a 00 39 00 3a 00 39 00 3a 00 ad 00 3a 00 ad     .:.9.:.9.:...:..
    12d5:	00 3a 00 39 00 3a 00 ad 00 3a 00 ad 00 3a 00 ad     .:.9.:...:...:..
    12e5:	00 3a 00 ad 00 3a 00 ad 00 3a 00 39 00 3a 00 39     .:...:...:.9.:.9
    12f5:	00 3a 00 ad 00 3a 00 ad 00 3a 00 ad 00 3a 00 39     .:...:...:...:.9
    1305:	00 3a 00 39 00 3a 00 39 00 3a 00 39 00 3a 00 39     .:.9.:.9.:.9.:.9
    1315:	00 3a 00 39 00 3a 00 39 00 3a 00 39 00 3a 00 ad     .:.9.:.9.:.9.:..
    1325:	00 3a 00 ad 00 3a 00 ad 00 3a 00 ad 00 3a 00 ad     .:...:...:...:..
    1335:	00 3a 00 ad 00 3a 00 d6 0f 9e 03 e6 00 3a 00 98     .:...:.......:..
    1345:	26 9e 03 e6 00 3a 00 00 00                          &....:...

0000134e <hisenseCode>:
    134e:	6a 96 03 cb 01 38 00 37 00 38 00 37 00 38 00 aa     j....8.7.8.7.8..
    135e:	00 38 00 aa 00 38 00 aa 00 38 00 37 00 38 00 37     .8...8...8.7.8.7
    136e:	00 38 00 37 00 38 00 aa 00 38 00 37 00 38 00 37     .8.7.8...8.7.8.7
    137e:	00 38 00 37 00 38 00 37 00 38 00 aa 00 38 00 aa     .8.7.8.7.8...8..
    138e:	00 38 00 37 00 38 00 37 00 38 00 37 00 38 00 aa     .8.7.8.7.8.7.8..
    139e:	00 38 00 aa 00 38 00 aa 00 38 00 37 00 38 00 aa     .8...8...8.7.8..
    13ae:	00 38 00 aa 00 38 00 aa 00 38 00 aa 00 38 00 37     .8...8...8...8.7
    13be:	00 38 00 aa 00 38 00 37 00 38 00 37 00 38 00 aa     .8...8.7.8.7.8..
    13ce:	00 38 00 37 00 38 00 37 00 38 00 37 00 38 00 aa     .8.7.8.7.8.7.8..
    13de:	00 38 00 37 00 38 00 aa 00 38 00 aa 00 38 00 37     .8.7.8...8...8.7
    13ee:	00 38 00 aa 00 38 00 aa 00 38 00 aa 00 38 00 3c     .8...8...8...8.<
    13fe:	09 98 03 ca 01 38 00 94 25 98 03 ca 01 38 00 00     .....8..%....8..
	...

0000140f <sampoCode>:
    140f:	6a 56 01 57 01 55 00 04 01 55 00 57 00 55 00 04     jV.W.U...U.W.U..
    141f:	01 55 00 04 01 55 00 57 00 55 00 04 01 55 00 57     .U...U.W.U...U.W
    142f:	00 55 00 04 01 55 00 04 01 55 00 57 00 55 00 57     .U...U...U.W.U.W
    143f:	00 55 00 57 00 55 00 57 00 55 00 04 01 55 00 57     .U.W.U.W.U...U.W
    144f:	00 55 00 04 01 55 00 57 00 55 00 57 00 55 00 04     .U...U.W.U.W.U..
    145f:	01 55 00 57 00 55 00 57 00 55 00 04 01 55 00 04     .U.W.U.W.U...U..
    146f:	01 55 00 04 01 55 00 26 0d 56 01 58 01 55 00 04     .U...U.&.V.X.U..
    147f:	01 55 00 57 00 55 00 04 01 55 00 04 01 55 00 57     .U.W.U...U...U.W
    148f:	00 55 00 04 01 55 00 57 00 55 00 04 01 55 00 04     .U...U.W.U...U..
    149f:	01 55 00 57 00 55 00 57 00 55 00 57 00 55 00 57     .U.W.U.W.U.W.U.W
    14af:	00 55 00 04 01 55 00 57 00 55 00 04 01 55 00 57     .U...U.W.U...U.W
    14bf:	00 55 00 57 00 55 00 04 01 55 00 57 00 55 00 57     .U.W.U...U.W.U.W
    14cf:	00 55 00 04 01 55 00 04 01 55 00 04 01 55 00 00     .U...U...U...U..
	...

000014e0 <hitachiCode>:
    14e0:	6a 8d 03 c4 01 3a 00 37 00 3a 00 37 00 3a 00 37     j....:.7.:.7.:.7
    14f0:	00 3a 00 37 00 3a 00 af 00 3a 00 37 00 3a 00 af     .:.7.:...:.7.:..
    1500:	00 3a 00 37 00 3a 00 af 00 3a 00 af 00 3a 00 af     .:.7.:...:...:..
    1510:	00 3a 00 af 00 3a 00 37 00 3a 00 af 00 3a 00 37     .:...:.7.:...:.7
    1520:	00 3a 00 af 00 3a 00 af 00 3a 00 af 00 3a 00 af     .:...:...:...:..
    1530:	00 3a 00 37 00 3a 00 af 00 3a 00 37 00 3a 00 37     .:.7.:...:.7.:.7
    1540:	00 3a 00 37 00 3a 00 37 00 3a 00 37 00 3a 00 37     .:.7.:.7.:.7.:.7
    1550:	00 3a 00 af 00 3a 00 37 00 3a 00 af 00 3a 00 af     .:...:.7.:...:..
    1560:	00 3a 00 af 00 3a 00 32 10 8e 03 e5 00 3a 00 7d     .:...:.2.....:.}
    1570:	25 8e 03 e5 00 38 00 00 00                          %....8...

00001579 <jvcCode>:
    1579:	6a 61 03 ad 01 35 00 a1 00 35 00 a1 00 35 00 37     ja...5...5...5.7
    1589:	00 35 00 37 00 35 00 37 00 35 00 37 00 35 00 37     .5.7.5.7.5.7.5.7
    1599:	00 35 00 37 00 35 00 a1 00 35 00 a1 00 35 00 a1     .5.7.5...5...5..
    15a9:	00 35 00 37 00 35 00 a1 00 35 00 37 00 35 00 37     .5.7.5...5.7.5.7
    15b9:	00 35 00 37 00 35 00 2b 09 35 00 a1 00 35 00 a1     .5.7.5.+.5...5..
    15c9:	00 35 00 37 00 35 00 37 00 35 00 37 00 35 00 37     .5.7.5.7.5.7.5.7
    15d9:	00 35 00 37 00 35 00 37 00 35 00 a1 00 35 00 a1     .5.7.5.7.5...5..
    15e9:	00 35 00 a1 00 35 00 37 00 35 00 a1 00 35 00 37     .5...5.7.5...5.7
    15f9:	00 35 00 37 00 35 00 37 00 35 00 2b 09 35 00 a1     .5.7.5.7.5.+.5..
    1609:	00 35 00 a1 00 35 00 37 00 35 00 37 00 35 00 37     .5...5.7.5.7.5.7
    1619:	00 35 00 37 00 35 00 37 00 35 00 37 00 35 00 a1     .5.7.5.7.5.7.5..
    1629:	00 35 00 a1 00 35 00 a1 00 35 00 37 00 35 00 a1     .5...5...5.7.5..
    1639:	00 35 00 37 00 35 00 37 00 35 00 37 00 35 00 00     .5.7.5.7.5.7.5..
	...

0000164a <sylvaniaCode>:
    164a:	6a 9c 03 cd 01 38 00 ae 00 38 00 ae 00 38 00 ae     j....8...8...8..
    165a:	00 38 00 38 00 38 00 38 00 38 00 38 00 38 00 38     .8.8.8.8.8.8.8.8
    166a:	00 38 00 ae 00 38 00 38 00 38 00 ae 00 38 00 38     .8...8.8.8...8.8
    167a:	00 38 00 38 00 38 00 38 00 38 00 ae 00 38 00 38     .8.8.8.8.8...8.8
    168a:	00 38 00 38 00 38 00 38 00 38 00 38 00 38 00 38     .8.8.8.8.8.8.8.8
    169a:	00 38 00 38 00 38 00 38 00 38 00 ae 00 38 00 ae     .8.8.8.8.8...8..
    16aa:	00 38 00 ae 00 38 00 ae 00 38 00 ae 00 38 00 ae     .8...8...8...8..
    16ba:	00 38 00 ae 00 38 00 ae 00 38 00 38 00 38 00 38     .8...8...8.8.8.8
    16ca:	00 38 00 38 00 38 00 d7 0f 9e 03 e6 00 38 00 7f     .8.8.8.......8..
    16da:	26 9e 03 e6 00 38 00 00 00                          &....8...

000016e3 <pioneerCode>:
    16e3:	6a 9c 03 ce 01 3b 00 ad 00 3b 00 3b 00 3b 00 3b     j....;...;.;.;.;
    16f3:	00 3b 00 3b 00 3b 00 ad 00 3b 00 ad 00 3b 00 ad     .;.;.;...;...;..
    1703:	00 3b 00 3b 00 3b 00 3b 00 3b 00 ad 00 3b 00 ad     .;.;.;.;.;...;..
    1713:	00 3b 00 ad 00 3b 00 3b 00 3b 00 3b 00 3b 00 3b     .;...;.;.;.;.;.;
    1723:	00 3b 00 ad 00 3b 00 3b 00 3b 00 ad 00 3b 00 3b     .;...;.;.;...;.;
    1733:	00 3b 00 ad 00 3b 00 3b 00 3b 00 3b 00 3b 00 ad     .;...;.;.;.;.;..
    1743:	00 3b 00 3b 00 3b 00 ad 00 3b 00 3b 00 3b 00 ad     .;.;.;...;.;.;..
    1753:	00 3b 00 3b 00 3b 00 ad 00 3b 00 ad 00 3b 00 3b     .;.;.;...;...;.;
    1763:	00 3b 00 ad 00 3b 00 15 10 9e 03 cb 01 3b 00 ad     .;...;.......;..
    1773:	00 3b 00 3b 00 3b 00 3b 00 3b 00 3b 00 3b 00 ad     .;.;.;.;.;.;.;..
    1783:	00 3b 00 ad 00 3b 00 ad 00 3b 00 3b 00 3b 00 3b     .;...;...;.;.;.;
    1793:	00 3b 00 ad 00 3b 00 ad 00 3b 00 ad 00 3b 00 3b     .;...;...;...;.;
    17a3:	00 3b 00 3b 00 3b 00 3b 00 3b 00 ad 00 3b 00 3b     .;.;.;.;.;...;.;
    17b3:	00 3b 00 ad 00 3b 00 3b 00 3b 00 ad 00 3b 00 3b     .;...;.;.;...;.;
    17c3:	00 3b 00 3b 00 3b 00 ad 00 3b 00 3b 00 3b 00 ad     .;.;.;...;.;.;..
    17d3:	00 3b 00 3b 00 3b 00 ad 00 3b 00 3b 00 3b 00 ad     .;.;.;...;.;.;..
    17e3:	00 3b 00 ad 00 3b 00 3b 00 3b 00 ad 00 3b 00 00     .;...;.;.;...;..
	...

000017f4 <zenithCode>:
    17f4:	68 34 00 31 00 34 00 a3 01 34 00 0a 02 34 00 31     h4.1.4...4...4.1
    1804:	00 34 00 a3 01 34 00 31 00 34 00 a3 01 34 00 0a     .4...4.1.4...4..
    1814:	02 34 00 31 00 34 00 a3 01 34 00 0a 02 34 00 31     .4.1.4...4...4.1
    1824:	00 34 00 a3 01 34 00 0a 02 34 00 0a 02 34 00 31     .4...4...4...4.1
    1834:	00 34 00 91 30 34 00 31 00 34 00 a3 01 34 00 0a     .4..04.1.4...4..
    1844:	02 34 00 31 00 34 00 a3 01 34 00 31 00 34 00 a3     .4.1.4...4.1.4..
    1854:	01 34 00 0a 02 34 00 31 00 34 00 a3 01 34 00 0a     .4...4.1.4...4..
    1864:	02 34 00 31 00 34 00 a3 01 34 00 0a 02 34 00 0a     .4.1.4...4...4..
    1874:	02 34 00 31 00 34 00 00 00                          .4.1.4...

0000187d <samsungCode>:
    187d:	6a ce 01 dc 01 35 00 af 00 35 00 af 00 35 00 af     j....5...5...5..
    188d:	00 35 00 3e 00 35 00 3e 00 35 00 3e 00 35 00 3e     .5.>.5.>.5.>.5.>
    189d:	00 35 00 3e 00 35 00 af 00 35 00 af 00 35 00 af     .5.>.5...5...5..
    18ad:	00 35 00 3e 00 35 00 3e 00 35 00 3e 00 35 00 3e     .5.>.5.>.5.>.5.>
    18bd:	00 35 00 3e 00 35 00 3e 00 35 00 af 00 35 00 3e     .5.>.5.>.5...5.>
    18cd:	00 35 00 3e 00 35 00 3e 00 35 00 3e 00 35 00 3e     .5.>.5.>.5.>.5.>
    18dd:	00 35 00 3e 00 35 00 af 00 35 00 3e 00 35 00 af     .5.>.5...5.>.5..
    18ed:	00 35 00 af 00 35 00 af 00 35 00 af 00 35 00 af     .5...5...5...5..
    18fd:	00 35 00 af 00 35 00 35 12 d0 01 dc 01 35 00 af     .5...5.5.....5..
    190d:	00 35 00 af 00 35 00 af 00 35 00 3e 00 35 00 3e     .5...5...5.>.5.>
    191d:	00 35 00 3e 00 35 00 3e 00 35 00 3e 00 35 00 af     .5.>.5.>.5.>.5..
    192d:	00 35 00 af 00 35 00 af 00 35 00 3e 00 35 00 3e     .5...5...5.>.5.>
    193d:	00 35 00 3e 00 35 00 3e 00 35 00 3e 00 35 00 3e     .5.>.5.>.5.>.5.>
    194d:	00 35 00 af 00 35 00 3e 00 35 00 3e 00 35 00 3e     .5...5.>.5.>.5.>
    195d:	00 35 00 3e 00 35 00 3e 00 35 00 3e 00 35 00 af     .5.>.5.>.5.>.5..
    196d:	00 35 00 3e 00 35 00 af 00 35 00 af 00 35 00 af     .5.>.5...5...5..
    197d:	00 35 00 af 00 35 00 af 00 35 00 af 00 35 00 00     .5...5...5...5..
	...

0000198e <philipsCode>:
    198e:	72 5c 00 5c 00 b8 00 5c 00 5c 00 5c 00 5c 00 5c     r\.\...\.\.\.\.\
    199e:	00 5c 00 5c 00 5c 00 5c 00 5c 00 5c 00 5c 00 5c     .\.\.\.\.\.\.\.\
    19ae:	00 5c 00 b8 00 5c 00 5c 00 b8 00 5c 00 5c 00 00     .\...\.\...\.\..
    19be:	24 5c 00 5c 00 b8 00 5c 00 5c 00 5c 00 5c 00 5c     $\.\...\.\.\.\.\
    19ce:	00 5c 00 5c 00 5c 00 5c 00 5c 00 5c 00 5c 00 5c     .\.\.\.\.\.\.\.\
    19de:	00 5c 00 b8 00 5c 00 5c 00 b8 00 5c 00 5c 00 00     .\...\.\...\.\..
	...

000019ef <toshibaCode>:
    19ef:	6a 9c 03 d0 01 3a 00 39 00 3a 00 39 00 3a 00 39     j....:.9.:.9.:.9
    19ff:	00 3a 00 39 00 3a 00 39 00 3a 00 39 00 3a 00 ad     .:.9.:.9.:.9.:..
    1a0f:	00 3a 00 39 00 3a 00 ad 00 3a 00 ad 00 3a 00 ad     .:.9.:...:...:..
    1a1f:	00 3a 00 ad 00 3a 00 ad 00 3a 00 ad 00 3a 00 39     .:...:...:...:.9
    1a2f:	00 3a 00 ad 00 3a 00 39 00 3a 00 ad 00 3a 00 39     .:...:.9.:...:.9
    1a3f:	00 3a 00 39 00 3a 00 ad 00 3a 00 39 00 3a 00 39     .:.9.:...:.9.:.9
    1a4f:	00 3a 00 39 00 3a 00 ad 00 3a 00 39 00 3a 00 ad     .:.9.:...:.9.:..
    1a5f:	00 3a 00 ad 00 3a 00 39 00 3a 00 ad 00 3a 00 ad     .:...:.9.:...:..
    1a6f:	00 3a 00 ad 00 3a 00 d6 0f 9e 03 e6 00 3a 00 98     .:...:.......:..
    1a7f:	26 9e 03 e6 00 3a 00 00 00                          &....:...

00001a88 <sharpCode>:
    1a88:	6a 1c 00 bd 00 1d 00 51 00 1d 00 51 00 1d 00 51     j......Q...Q...Q
    1a98:	00 1d 00 51 00 1d 00 51 00 1d 00 bd 00 1d 00 bd     ...Q...Q........
    1aa8:	00 1d 00 51 00 1d 00 bd 00 1d 00 51 00 1d 00 51     ...Q.......Q...Q
    1ab8:	00 1d 00 51 00 1d 00 bd 00 1d 00 51 00 1d 00 3e     ...Q.......Q...>
    1ac8:	12 1d 00 bd 00 1d 00 51 00 1d 00 51 00 1d 00 51     .......Q...Q...Q
    1ad8:	00 1d 00 51 00 1d 00 bd 00 1d 00 51 00 1d 00 51     ...Q.......Q...Q
    1ae8:	00 1d 00 bd 00 1d 00 51 00 1d 00 bd 00 1d 00 bd     .......Q........
    1af8:	00 1d 00 bd 00 1d 00 51 00 1d 00 bd 00 1d 00 3e     .......Q.......>
    1b08:	12 1d 00 bd 00 1d 00 51 00 1d 00 51 00 1d 00 51     .......Q...Q...Q
    1b18:	00 1d 00 51 00 1d 00 51 00 1d 00 bd 00 1d 00 bd     ...Q...Q........
    1b28:	00 1d 00 51 00 1d 00 bd 00 1d 00 51 00 1d 00 51     ...Q.......Q...Q
    1b38:	00 1d 00 51 00 1d 00 bd 00 1d 00 51 00 1d 00 3e     ...Q.......Q...>
    1b48:	12 1d 00 bd 00 1d 00 51 00 1d 00 51 00 1d 00 51     .......Q...Q...Q
    1b58:	00 1d 00 51 00 1d 00 bd 00 1d 00 51 00 1d 00 51     ...Q.......Q...Q
    1b68:	00 1d 00 bd 00 1d 00 51 00 1d 00 bd 00 1d 00 bd     .......Q........
    1b78:	00 1d 00 bd 00 1d 00 51 00 1d 00 bd 00 1d 00 00     .......Q........
	...

00001b89 <panasonicCode>:
    1b89:	6e 66 01 b3 00 2c 00 2d 00 2c 00 87 00 2c 00 2d     nf...,.-.,...,.-
    1b99:	00 2c 00 2d 00 2c 00 2d 00 2c 00 2d 00 2c 00 2d     .,.-.,.-.,.-.,.-
    1ba9:	00 2c 00 2d 00 2c 00 2d 00 2c 00 2d 00 2c 00 2d     .,.-.,.-.,.-.,.-
    1bb9:	00 2c 00 2d 00 2c 00 2d 00 2c 00 87 00 2c 00 2d     .,.-.,.-.,...,.-
    1bc9:	00 2c 00 2d 00 2c 00 2d 00 2c 00 2d 00 2c 00 2d     .,.-.,.-.,.-.,.-
    1bd9:	00 2c 00 2d 00 2c 00 2d 00 2c 00 2d 00 2c 00 2d     .,.-.,.-.,.-.,.-
    1be9:	00 2c 00 87 00 2c 00 2d 00 2c 00 2d 00 2c 00 2d     .,...,.-.,.-.,.-
    1bf9:	00 2c 00 2d 00 2c 00 2d 00 2c 00 2d 00 2c 00 2d     .,.-.,.-.,.-.,.-
    1c09:	00 2c 00 2d 00 2c 00 87 00 2c 00 2d 00 2c 00 87     .,.-.,...,.-.,..
    1c19:	00 2c 00 87 00 2c 00 87 00 2c 00 87 00 2c 00 2d     .,...,...,...,.-
    1c29:	00 2c 00 2d 00 2c 00 87 00 2c 00 2d 00 2c 00 87     .,.-.,...,.-.,..
    1c39:	00 2c 00 87 00 2c 00 87 00 2c 00 87 00 2c 00 2d     .,...,...,...,.-
    1c49:	00 2c 00 87 00 2c 00 28 1e 66 01 b4 00 2c 00 2d     .,...,.(.f...,.-
    1c59:	00 2c 00 87 00 2c 00 2d 00 2c 00 2d 00 2c 00 2d     .,...,.-.,.-.,.-
    1c69:	00 2c 00 2d 00 2c 00 2d 00 2c 00 2d 00 2c 00 2d     .,.-.,.-.,.-.,.-
    1c79:	00 2c 00 2d 00 2c 00 2d 00 2c 00 2d 00 2c 00 2d     .,.-.,.-.,.-.,.-
    1c89:	00 2c 00 87 00 2c 00 2d 00 2c 00 2d 00 2c 00 2d     .,...,.-.,.-.,.-
    1c99:	00 2c 00 2d 00 2c 00 2d 00 2c 00 2d 00 2c 00 2d     .,.-.,.-.,.-.,.-
    1ca9:	00 2c 00 2d 00 2c 00 2d 00 2c 00 87 00 2c 00 2d     .,.-.,.-.,...,.-
    1cb9:	00 2c 00 2d 00 2c 00 2d 00 2c 00 2d 00 2c 00 2d     .,.-.,.-.,.-.,.-
    1cc9:	00 2c 00 2d 00 2c 00 2d 00 2c 00 2d 00 2c 00 87     .,.-.,.-.,.-.,..
    1cd9:	00 2c 00 2d 00 2c 00 87 00 2c 00 87 00 2c 00 87     .,.-.,...,...,..
    1ce9:	00 2c 00 87 00 2c 00 2d 00 2c 00 2d 00 2c 00 87     .,...,.-.,.-.,..
    1cf9:	00 2c 00 2d 00 2c 00 87 00 2c 00 87 00 2c 00 87     .,.-.,...,...,..
    1d09:	00 2c 00 87 00 2c 00 2d 00 2c 00 87 00 2c 00 00     .,...,.-.,...,..
	...

00001d1a <rcaCode>:
    1d1a:	47 9b 01 9a 01 34 00 cd 00 34 00 cd 00 34 00 cd     G....4...4...4..
    1d2a:	00 34 00 cd 00 34 00 66 00 34 00 66 00 34 00 cd     .4...4.f.4.f.4..
    1d3a:	00 34 00 66 00 34 00 cd 00 34 00 66 00 34 00 cd     .4.f.4...4.f.4..
    1d4a:	00 34 00 66 00 34 00 66 00 34 00 66 00 34 00 66     .4.f.4.f.4.f.4.f
    1d5a:	00 34 00 66 00 34 00 cd 00 34 00 cd 00 34 00 66     .4.f.4...4...4.f
    1d6a:	00 34 00 cd 00 34 00 66 00 34 00 cd 00 34 00 66     .4...4.f.4...4.f
    1d7a:	00 34 00 cd 00 34 00 35 03 9b 01 9a 01 34 00 cd     .4...4.5.....4..
    1d8a:	00 34 00 cd 00 34 00 cd 00 34 00 cd 00 34 00 66     .4...4...4...4.f
    1d9a:	00 34 00 66 00 34 00 cd 00 34 00 66 00 34 00 cd     .4.f.4...4.f.4..
    1daa:	00 34 00 66 00 34 00 cd 00 34 00 66 00 34 00 66     .4.f.4...4.f.4.f
    1dba:	00 34 00 66 00 34 00 66 00 34 00 66 00 34 00 cd     .4.f.4.f.4.f.4..
    1dca:	00 34 00 cd 00 34 00 66 00 34 00 cd 00 34 00 66     .4...4.f.4...4.f
    1dda:	00 34 00 cd 00 34 00 66 00 34 00 cd 00 34 00 00     .4...4.f.4...4..
	...

00001deb <sonyCode>:
    1deb:	6a f5 00 3c 00 7b 00 3c 00 3d 00 3c 00 7b 00 3c     j..<.{.<.=.<.{.<
    1dfb:	00 3d 00 3c 00 7b 00 3c 00 3d 00 3c 00 3d 00 3c     .=.<.{.<.=.<.=.<
    1e0b:	00 7b 00 3c 00 3d 00 3c 00 3d 00 3c 00 3d 00 3c     .{.<.=.<.=.<.=.<
    1e1b:	00 3d 00 c7 0a f5 00 3c 00 7b 00 3c 00 3d 00 3c     .=.....<.{.<.=.<
    1e2b:	00 7b 00 3c 00 3d 00 3c 00 7b 00 3c 00 3d 00 3c     .{.<.=.<.{.<.=.<
    1e3b:	00 3d 00 3c 00 7b 00 3c 00 3d 00 3c 00 3d 00 3c     .=.<.{.<.=.<.=.<
    1e4b:	00 3d 00 3c 00 3d 00 00 00                          .=.<.=...

00001e54 <__ctors_end>:
    1e54:	11 24       	eor	r1, r1
    1e56:	1f be       	out	0x3f, r1	; 63
    1e58:	cf e5       	ldi	r28, 0x5F	; 95
    1e5a:	d2 e0       	ldi	r29, 0x02	; 2
    1e5c:	de bf       	out	0x3e, r29	; 62
    1e5e:	cd bf       	out	0x3d, r28	; 61

00001e60 <__do_copy_data>:
    1e60:	10 e0       	ldi	r17, 0x00	; 0
    1e62:	a0 e6       	ldi	r26, 0x60	; 96
    1e64:	b0 e0       	ldi	r27, 0x00	; 0
    1e66:	e4 ec       	ldi	r30, 0xC4	; 196
    1e68:	ff e1       	ldi	r31, 0x1F	; 31
    1e6a:	02 c0       	rjmp	.+4      	; 0x1e70 <__do_copy_data+0x10>
    1e6c:	05 90       	lpm	r0, Z+
    1e6e:	0d 92       	st	X+, r0
    1e70:	a2 36       	cpi	r26, 0x62	; 98
    1e72:	b1 07       	cpc	r27, r17
    1e74:	d9 f7       	brne	.-10     	; 0x1e6c <__do_copy_data+0xc>
    1e76:	48 d0       	rcall	.+144    	; 0x1f08 <main>
    1e78:	a3 c0       	rjmp	.+326    	; 0x1fc0 <_exit>

00001e7a <__bad_interrupt>:
    1e7a:	c2 c0       	rjmp	.+388    	; 0x2000 <__TEXT_REGION_LENGTH__>

00001e7c <delay_ten_us>:

#define NOP __asm__ __volatile__ ("nop")
// This function delays the specified number of 10 microseconds
// #define DELAY_CNT 11
#define DELAY_CNT 7  // adjust timing for ATMEL Studio porting by Y.M.
void delay_ten_us(uint16_t us) {
    1e7c:	9c 01       	movw	r18, r24
	uint8_t timer;
	while (us != 0) {
    1e7e:	10 c0       	rjmp	.+32     	; 0x1ea0 <delay_ten_us+0x24>
		for (timer=0; timer <= DELAY_CNT; timer++) {
			NOP;NOP;
    1e80:	00 00       	nop
    1e82:	00 00       	nop
// #define DELAY_CNT 11
#define DELAY_CNT 7  // adjust timing for ATMEL Studio porting by Y.M.
void delay_ten_us(uint16_t us) {
	uint8_t timer;
	while (us != 0) {
		for (timer=0; timer <= DELAY_CNT; timer++) {
    1e84:	9f 5f       	subi	r25, 0xFF	; 255
    1e86:	01 c0       	rjmp	.+2      	; 0x1e8a <delay_ten_us+0xe>
    1e88:	90 e0       	ldi	r25, 0x00	; 0
    1e8a:	98 30       	cpi	r25, 0x08	; 8
    1e8c:	c8 f3       	brcs	.-14     	; 0x1e80 <delay_ten_us+0x4>
	...
			NOP;NOP;
		}
		//NOP;
		NOP;NOP;NOP;NOP;NOP;NOP;NOP;// adjust timing for ATMEL Studio porting
    1e9a:	00 00       	nop
		us--;
    1e9c:	21 50       	subi	r18, 0x01	; 1
    1e9e:	31 09       	sbc	r19, r1
// This function delays the specified number of 10 microseconds
// #define DELAY_CNT 11
#define DELAY_CNT 7  // adjust timing for ATMEL Studio porting by Y.M.
void delay_ten_us(uint16_t us) {
	uint8_t timer;
	while (us != 0) {
    1ea0:	21 15       	cp	r18, r1
    1ea2:	31 05       	cpc	r19, r1
    1ea4:	89 f7       	brne	.-30     	; 0x1e88 <delay_ten_us+0xc>
		}
		//NOP;
		NOP;NOP;NOP;NOP;NOP;NOP;NOP;// adjust timing for ATMEL Studio porting
		us--;
	}
}
    1ea6:	08 95       	ret

00001ea8 <quickflashLED>:

// This function quickly pulses the visible LED (connected to PB0, pin 5)
void quickflashLED( void ) {
  // pulse LED on for 30ms

  PORTB &= ~_BV(LED);         // turn on visible LED at PB0 by pulling pin to ground
    1ea8:	88 b3       	in	r24, 0x18	; 24
    1eaa:	8b 7f       	andi	r24, 0xFB	; 251
    1eac:	88 bb       	out	0x18, r24	; 24
  delay_ten_us(3000);         // 30 millisec delay
    1eae:	88 eb       	ldi	r24, 0xB8	; 184
    1eb0:	9b e0       	ldi	r25, 0x0B	; 11
    1eb2:	e4 df       	rcall	.-56     	; 0x1e7c <delay_ten_us>
  PORTB |= _BV(LED);          // turn off visible LED at PB0 by pulling pin to +3V
    1eb4:	88 b3       	in	r24, 0x18	; 24
    1eb6:	84 60       	ori	r24, 0x04	; 4
    1eb8:	88 bb       	out	0x18, r24	; 24
    1eba:	08 95       	ret

00001ebc <quickflashLED4x>:
}


// This function quickly pulses the visible LED (connected to PB0, pin 5) 4 times
void quickflashLED4x( void ) {
  quickflashLED();
    1ebc:	f5 df       	rcall	.-22     	; 0x1ea8 <quickflashLED>
  delay_ten_us(15000);        // 150 millisec delay
    1ebe:	88 e9       	ldi	r24, 0x98	; 152
    1ec0:	9a e3       	ldi	r25, 0x3A	; 58
    1ec2:	dc df       	rcall	.-72     	; 0x1e7c <delay_ten_us>
  quickflashLED();
    1ec4:	f1 df       	rcall	.-30     	; 0x1ea8 <quickflashLED>
  delay_ten_us(15000);        // 150 millisec delay
    1ec6:	88 e9       	ldi	r24, 0x98	; 152
    1ec8:	9a e3       	ldi	r25, 0x3A	; 58
    1eca:	d8 df       	rcall	.-80     	; 0x1e7c <delay_ten_us>
  quickflashLED();
    1ecc:	ed df       	rcall	.-38     	; 0x1ea8 <quickflashLED>
  delay_ten_us(15000);        // 150 millisec delay
    1ece:	88 e9       	ldi	r24, 0x98	; 152
    1ed0:	9a e3       	ldi	r25, 0x3A	; 58
    1ed2:	d4 df       	rcall	.-88     	; 0x1e7c <delay_ten_us>
  quickflashLED();
    1ed4:	e9 df       	rcall	.-46     	; 0x1ea8 <quickflashLED>
    1ed6:	08 95       	ret

00001ed8 <xmitCodeElement>:
// This function transmits one Code Element of a POWER code to the IR emitter, 
//   given offTime and onTime for the codeElement
//     If offTime = 0 that signifies the last Code Element of the POWER code
//     and the delay_ten_us function will have no delay for offTime 
//     (but we'll delay for 250 milliseconds in the main function)
void xmitCodeElement(uint16_t ontime, uint16_t offtime ) {
    1ed8:	cf 93       	push	r28
    1eda:	df 93       	push	r29
    1edc:	eb 01       	movw	r28, r22
  // start Timer1 outputting the carrier frequency to IR emitters on OC1A (PB1, pin 6) and OC0A (PB0, pin 5)
  TCNT0 = 0; // reset the timers so they are aligned
    1ede:	12 be       	out	0x32, r1	; 50
  TCNT1 = 0;
    1ee0:	1f bc       	out	0x2f, r1	; 47
  TIFR = 0;  // clean out the timer flags
    1ee2:	18 be       	out	0x38, r1	; 56

  TCCR0A =_BV(COM0A0) | _BV(WGM01);          // set up timer 0
    1ee4:	22 e4       	ldi	r18, 0x42	; 66
    1ee6:	2a bd       	out	0x2a, r18	; 42

  TCCR1 =_BV(COM1A0) | _BV(CS10) | _BV(CTC1);      // set up and turn on timer 1
    1ee8:	21 e9       	ldi	r18, 0x91	; 145
    1eea:	20 bf       	out	0x30, r18	; 48
  //TCCR1 = 0b10010001  // CTC1 = 1 to reset Timer1 to 0 when it reaches the value in OCR1C (i.e., on Compare Match)
                        // PWM1A = 0 to disable PWM mode
                        // COM1A1:0 = 01 to toggle OC1A on Compare Match
                        // CS13:10 = 0001 to start Timer1 with prescaler set to divide by 1 (i.e., no prescaler divide)
  TCCR0B = _BV(CS00);                              // turn on timer 0 exactly 1 instruction later
    1eec:	21 e0       	ldi	r18, 0x01	; 1
    1eee:	23 bf       	out	0x33, r18	; 51

  // keep transmitting carrier for onTime
  delay_ten_us(ontime);
    1ef0:	c5 df       	rcall	.-118    	; 0x1e7c <delay_ten_us>

 
  // turn off output to IR emitters on 0C1A (PB1, pin 6) for offTime
  TCCR1 = 0;      // stop Timer 1
    1ef2:	10 be       	out	0x30, r1	; 48
  TCCR0B = 0;     // stop Timer 0, exactly one instruction later
    1ef4:	13 be       	out	0x33, r1	; 51
  TCCR0A = 0;
    1ef6:	1a bc       	out	0x2a, r1	; 42

  PORTB &= ~_BV(IRLED1) & ~_BV(IRLED2);           // turn off IR LED
    1ef8:	88 b3       	in	r24, 0x18	; 24
    1efa:	8c 7f       	andi	r24, 0xFC	; 252
    1efc:	88 bb       	out	0x18, r24	; 24

  delay_ten_us(offtime);
    1efe:	ce 01       	movw	r24, r28
    1f00:	bd df       	rcall	.-134    	; 0x1e7c <delay_ten_us>
}
    1f02:	df 91       	pop	r29
    1f04:	cf 91       	pop	r28
    1f06:	08 95       	ret

00001f08 <main>:
//extern const struct powercode powerCodes[] PROGMEM;
// extern const PGM_P *powerCodes[] PROGMEM;
extern const struct powercode *const powerCodes[] PROGMEM; // Changed by Y.M. to avoid error
extern uint8_t num_codes;

int main(void) {
    1f08:	ef 92       	push	r14
    1f0a:	ff 92       	push	r15
    1f0c:	0f 93       	push	r16
    1f0e:	1f 93       	push	r17
    1f10:	cf 93       	push	r28
    1f12:	df 93       	push	r29
  uint8_t i, j;
  uint16_t ontime, offtime;

  DDRB = _BV(LED) | _BV(IRLED1) | _BV(IRLED2);    // set the visible and IR LED pins to outputs
    1f14:	87 e0       	ldi	r24, 0x07	; 7
    1f16:	87 bb       	out	0x17, r24	; 23
  PORTB = _BV(LED);  //  visible LED is off when pin is high
    1f18:	84 e0       	ldi	r24, 0x04	; 4
    1f1a:	88 bb       	out	0x18, r24	; 24
  PORTB &= ~_BV(IRLED1) & ~_BV(IRLED2);        // IR LED is off when pin is low
    1f1c:	88 b3       	in	r24, 0x18	; 24
    1f1e:	8c 7f       	andi	r24, 0xFC	; 252
    1f20:	88 bb       	out	0x18, r24	; 24

  for (i=0; i<num_codes; i++) {   // for every POWER code in our collection
    1f22:	00 e0       	ldi	r16, 0x00	; 0
    1f24:	2d c0       	rjmp	.+90     	; 0x1f80 <main+0x78>
    quickflashLED(); // visible indication that a code is being output
    1f26:	c0 df       	rcall	.-128    	; 0x1ea8 <quickflashLED>
//    PGM_P thecode_p = pgm_read_word(powerCodes+i);     // point to next POWER code
	PGM_P thecode_p = (PGM_P)pgm_read_word(powerCodes+i);     // cast added by Y.M. to avoid error
    1f28:	e0 2f       	mov	r30, r16
    1f2a:	f0 e0       	ldi	r31, 0x00	; 0
    1f2c:	ee 0f       	add	r30, r30
    1f2e:	ff 1f       	adc	r31, r31
    1f30:	e2 5e       	subi	r30, 0xE2	; 226
    1f32:	ff 4f       	sbci	r31, 0xFF	; 255
    1f34:	85 91       	lpm	r24, Z+
    1f36:	94 91       	lpm	r25, Z
    1f38:	ec 01       	movw	r28, r24
    uint8_t freq = pgm_read_byte(thecode_p);
    1f3a:	fc 01       	movw	r30, r24
    1f3c:	84 91       	lpm	r24, Z
    // set OCR for Timer1 and Timer0 to output this POWER code's carrier frequency
    OCR0A = OCR1C = freq; 
    1f3e:	8d bd       	out	0x2d, r24	; 45
    1f40:	89 bd       	out	0x29, r24	; 41
    
    // transmit all codeElements for this POWER code (a codeElement is an onTime and an offTime)
    // transmitting onTime means pulsing the IR emitters at the carrier frequency for the length of time specified in onTime
    // transmitting offTime means no output from the IR emitters for the length of time specified in offTime
    j = 0;  // index into codeElements of this POWER code
    1f42:	10 e0       	ldi	r17, 0x00	; 0
    do {
      // read the onTime and offTime from the program memory
      ontime = pgm_read_word(thecode_p+(j*4)+1);
    1f44:	21 2f       	mov	r18, r17
    1f46:	30 e0       	ldi	r19, 0x00	; 0
    1f48:	22 0f       	add	r18, r18
    1f4a:	33 1f       	adc	r19, r19
    1f4c:	22 0f       	add	r18, r18
    1f4e:	33 1f       	adc	r19, r19
    1f50:	f9 01       	movw	r30, r18
    1f52:	31 96       	adiw	r30, 0x01	; 1
    1f54:	ec 0f       	add	r30, r28
    1f56:	fd 1f       	adc	r31, r29
    1f58:	85 91       	lpm	r24, Z+
    1f5a:	94 91       	lpm	r25, Z
      offtime = pgm_read_word(thecode_p+(j*4)+3);
    1f5c:	f9 01       	movw	r30, r18
    1f5e:	33 96       	adiw	r30, 0x03	; 3
    1f60:	ec 0f       	add	r30, r28
    1f62:	fd 1f       	adc	r31, r29
    1f64:	e5 90       	lpm	r14, Z+
    1f66:	f4 90       	lpm	r15, Z

      xmitCodeElement(ontime, offtime);  // transmit this codeElement (ontime and offtime)
    1f68:	b7 01       	movw	r22, r14
    1f6a:	b6 df       	rcall	.-148    	; 0x1ed8 <xmitCodeElement>
      j++;        // turn off IR LED
    1f6c:	1f 5f       	subi	r17, 0xFF	; 255
    } while ( offtime != 0 );  // offTime = 0 signifies last codeElement for a POWER code
    1f6e:	ef 28       	or	r14, r15
    1f70:	49 f7       	brne	.-46     	; 0x1f44 <main+0x3c>

		PORTB &= ~_BV(IRLED1) & ~_BV(IRLED2);           // turn off IR LED
    1f72:	88 b3       	in	r24, 0x18	; 24
    1f74:	8c 7f       	andi	r24, 0xFC	; 252
    1f76:	88 bb       	out	0x18, r24	; 24

		// delay 250 milliseconds before transmitting next POWER code
		delay_ten_us(25000);
    1f78:	88 ea       	ldi	r24, 0xA8	; 168
    1f7a:	91 e6       	ldi	r25, 0x61	; 97
    1f7c:	7f df       	rcall	.-258    	; 0x1e7c <delay_ten_us>

  DDRB = _BV(LED) | _BV(IRLED1) | _BV(IRLED2);    // set the visible and IR LED pins to outputs
  PORTB = _BV(LED);  //  visible LED is off when pin is high
  PORTB &= ~_BV(IRLED1) & ~_BV(IRLED2);        // IR LED is off when pin is low

  for (i=0; i<num_codes; i++) {   // for every POWER code in our collection
    1f7e:	0f 5f       	subi	r16, 0xFF	; 255
    1f80:	80 91 60 00 	lds	r24, 0x0060	; 0x800060 <__DATA_REGION_ORIGIN__>
    1f84:	08 17       	cp	r16, r24
    1f86:	08 f4       	brcc	.+2      	; 0x1f8a <main+0x82>
    1f88:	ce cf       	rjmp	.-100    	; 0x1f26 <main+0x1e>
		delay_ten_us(25000);
  }
  

  // flash the visible LED on PB0  4 times to indicate that we're done
  delay_ten_us(65500); // wait maxtime 
    1f8a:	8c ed       	ldi	r24, 0xDC	; 220
    1f8c:	9f ef       	ldi	r25, 0xFF	; 255
    1f8e:	76 df       	rcall	.-276    	; 0x1e7c <delay_ten_us>
  quickflashLED4x();
    1f90:	95 df       	rcall	.-214    	; 0x1ebc <quickflashLED4x>

  // Shut down everything and put the CPU to sleep
  TCCR1 = 0;                      // turn off frequency generator (should be off already)
    1f92:	10 be       	out	0x30, r1	; 48
  TCCR0B = 0;
    1f94:	13 be       	out	0x33, r1	; 51
  PORTB |= _BV(LED); // turn on the button pullup, turn off visible LED
    1f96:	88 b3       	in	r24, 0x18	; 24
    1f98:	84 60       	ori	r24, 0x04	; 4
    1f9a:	88 bb       	out	0x18, r24	; 24
  PORTB &= ~_BV(IRLED1) & ~_BV(IRLED2);           // turn off IR LED
    1f9c:	88 b3       	in	r24, 0x18	; 24
    1f9e:	8c 7f       	andi	r24, 0xFC	; 252
    1fa0:	88 bb       	out	0x18, r24	; 24
  delay_ten_us(1000);             // wait 10 millisec second
    1fa2:	88 ee       	ldi	r24, 0xE8	; 232
    1fa4:	93 e0       	ldi	r25, 0x03	; 3
    1fa6:	6a df       	rcall	.-300    	; 0x1e7c <delay_ten_us>

  MCUCR = _BV(SM1) |  _BV(SE);    // power down mode,  SE=1 (bit 5) -- enables Sleep Modes
    1fa8:	80 e3       	ldi	r24, 0x30	; 48
    1faa:	85 bf       	out	0x35, r24	; 53
  sleep_cpu();                    // put CPU inteo Power Down Sleep Mode
    1fac:	88 95       	sleep
}
    1fae:	80 e0       	ldi	r24, 0x00	; 0
    1fb0:	90 e0       	ldi	r25, 0x00	; 0
    1fb2:	df 91       	pop	r29
    1fb4:	cf 91       	pop	r28
    1fb6:	1f 91       	pop	r17
    1fb8:	0f 91       	pop	r16
    1fba:	ff 90       	pop	r15
    1fbc:	ef 90       	pop	r14
    1fbe:	08 95       	ret

00001fc0 <_exit>:
    1fc0:	f8 94       	cli

00001fc2 <__stop_program>:
    1fc2:	ff cf       	rjmp	.-2      	; 0x1fc2 <__stop_program>
